	.file	"meow.c"
	.text
	.globl	squareNum
	.type	squareNum, @function
squareNum:
.LFB0:
	.cfi_startproc
	pushq	%rbp
	.cfi_def_cfa_offset 16
	.cfi_offset 6, -16
	movq	%rsp, %rbp
	.cfi_def_cfa_register 6
	movl	%edi, -4(%rbp)
	movl	-4(%rbp), %eax
	imull	-4(%rbp), %eax
	popq	%rbp
	.cfi_def_cfa 7, 8
	ret
	.cfi_endproc
.LFE0:
	.size	squareNum, .-squareNum
	.globl	fourth
	.type	fourth, @function
fourth:
.LFB1:
	.cfi_startproc
	pushq	%rbp
	.cfi_def_cfa_offset 16
	.cfi_offset 6, -16
	movq	%rsp, %rbp
	.cfi_def_cfa_register 6
	movq	%rdi, -8(%rbp)
	movq	-8(%rbp), %rax
	addq	$3, %rax
	movzbl	(%rax), %eax
	movsbl	%al, %eax
	popq	%rbp
	.cfi_def_cfa 7, 8
	ret
	.cfi_endproc
.LFE1:
	.size	fourth, .-fourth
	.globl	unrandomNumber
	.type	unrandomNumber, @function
unrandomNumber:
.LFB2:
	.cfi_startproc
	pushq	%rbp
	.cfi_def_cfa_offset 16
	.cfi_offset 6, -16
	movq	%rsp, %rbp
	.cfi_def_cfa_register 6
	movl	$4, %eax
	popq	%rbp
	.cfi_def_cfa 7, 8
	ret
	.cfi_endproc
.LFE2:
	.size	unrandomNumber, .-unrandomNumber
	.ident	"GCC: (GNU) 4.8.3 20140911 (Red Hat 4.8.3-9)"
	.section	.note.GNU-stack,"",@progbits
